target datalayout = "e-m:e-p270:32:32-p271:32:32-p272:64:64-i64:64-i128:128-f80:128-n8:16:32:64-S128"
target triple = "x86_64-pc-linux-gnu"

%struct.testVector = type { ptr, ptr, i64, i64 }
%struct.Hmac = type { %union.wc_Hashes, [36 x i32], [36 x i32], [16 x i32], ptr, i8, i8 }
%union.wc_Hashes = type { %struct.wc_Sha3 }
%struct.wc_Sha3 = type { [25 x i64], [200 x i8], i8, ptr }

@.str.53 = private unnamed_addr constant [9 x i8] c"Hi There\00", align 1
@.str.55 = private unnamed_addr constant [29 x i8] c"what do ya want for nothing?\00", align 1
@.str.57 = private unnamed_addr constant [51 x i8] c"\DD\DD\DD\DD\DD\DD\DD\DD\DD\DD\DD\DD\DD\DD\DD\DD\DD\DD\DD\DD\DD\DD\DD\DD\DD\DD\DD\DD\DD\DD\DD\DD\DD\DD\DD\DD\DD\DD\DD\DD\DD\DD\DD\DD\DD\DD\DD\DD\DD\DD\00", align 1
@__const.hmac_sha224_test.keys = private unnamed_addr constant [3 x ptr] [ptr @.str.59, ptr @.str.51, ptr @.str.60], align 16
@.str.64 = private unnamed_addr constant [29 x i8] c"\89o\B1\12\8A\BB\DF\19h2\10|\D4\9D\F3?G\B4\B1\16\99\12\BAOShK\22\00", align 1
@.str.65 = private unnamed_addr constant [29 x i8] c"\A3\0E\01\09\8B\C6\DB\BFEi\0F:~\9Em\0F\8B\BE\A2\A3\9EaH\00\8F\D0^D\00", align 1
@.str.66 = private unnamed_addr constant [29 x i8] c"\7F\B3\CB5\88\C6\C1\F6\FF\A9iM}j\D2d\93e\B0\C1\F6]i\D1\EC\833\EA\00", align 1

; Function Attrs: nounwind uwtable
define dso_local i32 @hmac_sha224_test() #0 {
  %1 = alloca i32, align 4
  %2 = alloca %struct.Hmac, align 16
  %3 = alloca [28 x i8], align 16
  %4 = alloca [3 x ptr], align 16
  %5 = alloca %struct.testVector, align 8
  %6 = alloca %struct.testVector, align 8
  %7 = alloca %struct.testVector, align 8
  %8 = alloca [3 x %struct.testVector], align 16
  %9 = alloca i32, align 4
  %10 = alloca i32, align 4
  %11 = alloca i32, align 4
  %12 = alloca i32, align 4
  call void @llvm.lifetime.start.p0(i64 784, ptr %2) #5
  call void @llvm.lifetime.start.p0(i64 28, ptr %3) #5
  call void @llvm.lifetime.start.p0(i64 24, ptr %4) #5
  call void @llvm.memcpy.p0.p0.i64(ptr align 16 %4, ptr align 16 @__const.hmac_sha224_test.keys, i64 24, i1 false)
  call void @llvm.lifetime.start.p0(i64 32, ptr %5) #5
  call void @llvm.lifetime.start.p0(i64 32, ptr %6) #5
  call void @llvm.lifetime.start.p0(i64 32, ptr %7) #5
  call void @llvm.lifetime.start.p0(i64 96, ptr %8) #5
  call void @llvm.lifetime.start.p0(i64 4, ptr %9) #5
  call void @llvm.lifetime.start.p0(i64 4, ptr %10) #5
  store i32 3, ptr %10, align 4, !tbaa !4
  call void @llvm.lifetime.start.p0(i64 4, ptr %11) #5
  %13 = getelementptr inbounds nuw %struct.testVector, ptr %5, i32 0, i32 0
  store ptr @.str.53, ptr %13, align 8, !tbaa !8
  %14 = getelementptr inbounds nuw %struct.testVector, ptr %5, i32 0, i32 1
  store ptr @.str.64, ptr %14, align 8, !tbaa !13
  %15 = getelementptr inbounds nuw %struct.testVector, ptr %5, i32 0, i32 0
  %16 = load ptr, ptr %15, align 8, !tbaa !8
  %17 = call i64 @strlen(ptr noundef %16) #6
  %18 = getelementptr inbounds nuw %struct.testVector, ptr %5, i32 0, i32 2
  store i64 %17, ptr %18, align 8, !tbaa !14
  %19 = getelementptr inbounds nuw %struct.testVector, ptr %5, i32 0, i32 3
  store i64 28, ptr %19, align 8, !tbaa !15
  %20 = getelementptr inbounds nuw %struct.testVector, ptr %6, i32 0, i32 0
  store ptr @.str.55, ptr %20, align 8, !tbaa !8
  %21 = getelementptr inbounds nuw %struct.testVector, ptr %6, i32 0, i32 1
  store ptr @.str.65, ptr %21, align 8, !tbaa !13
  %22 = getelementptr inbounds nuw %struct.testVector, ptr %6, i32 0, i32 0
  %23 = load ptr, ptr %22, align 8, !tbaa !8
  %24 = call i64 @strlen(ptr noundef %23) #6
  %25 = getelementptr inbounds nuw %struct.testVector, ptr %6, i32 0, i32 2
  store i64 %24, ptr %25, align 8, !tbaa !14
  %26 = getelementptr inbounds nuw %struct.testVector, ptr %6, i32 0, i32 3
  store i64 28, ptr %26, align 8, !tbaa !15
  %27 = getelementptr inbounds nuw %struct.testVector, ptr %7, i32 0, i32 0
  store ptr @.str.57, ptr %27, align 8, !tbaa !8
  %28 = getelementptr inbounds nuw %struct.testVector, ptr %7, i32 0, i32 1
  store ptr @.str.66, ptr %28, align 8, !tbaa !13
  %29 = getelementptr inbounds nuw %struct.testVector, ptr %7, i32 0, i32 0
  %30 = load ptr, ptr %29, align 8, !tbaa !8
  %31 = call i64 @strlen(ptr noundef %30) #6
  %32 = getelementptr inbounds nuw %struct.testVector, ptr %7, i32 0, i32 2
  store i64 %31, ptr %32, align 8, !tbaa !14
  %33 = getelementptr inbounds nuw %struct.testVector, ptr %7, i32 0, i32 3
  store i64 28, ptr %33, align 8, !tbaa !15
  %34 = getelementptr inbounds [3 x %struct.testVector], ptr %8, i64 0, i64 0
  call void @llvm.memcpy.p0.p0.i64(ptr align 16 %34, ptr align 8 %5, i64 32, i1 false), !tbaa.struct !16
  %35 = getelementptr inbounds [3 x %struct.testVector], ptr %8, i64 0, i64 1
  call void @llvm.memcpy.p0.p0.i64(ptr align 16 %35, ptr align 8 %6, i64 32, i1 false), !tbaa.struct !16
  %36 = getelementptr inbounds [3 x %struct.testVector], ptr %8, i64 0, i64 2
  call void @llvm.memcpy.p0.p0.i64(ptr align 16 %36, ptr align 8 %7, i64 32, i1 false), !tbaa.struct !16
  %37 = call i32 @wc_HmacInit(ptr noundef %2, ptr noundef null, i32 noundef -2)
  store i32 %37, ptr %9, align 4, !tbaa !4
  %38 = load i32, ptr %9, align 4, !tbaa !4
  %39 = icmp ne i32 %38, 0
  br i1 %39, label %40, label %41

40:                                               ; preds = %0
  store i32 -20009, ptr %1, align 4
  store i32 1, ptr %12, align 4
  br label %100

41:                                               ; preds = %0
  store i32 0, ptr %11, align 4, !tbaa !4
  br label %42

42:                                               ; preds = %96, %41
  %43 = load i32, ptr %11, align 4, !tbaa !4
  %44 = load i32, ptr %10, align 4, !tbaa !4
  %45 = icmp slt i32 %43, %44
  br i1 %45, label %46, label %99

46:                                               ; preds = %42
  %47 = load i32, ptr %11, align 4, !tbaa !4
  %48 = sext i32 %47 to i64
  %49 = getelementptr inbounds [3 x ptr], ptr %4, i64 0, i64 %48
  %50 = load ptr, ptr %49, align 8, !tbaa !17
  %51 = load i32, ptr %11, align 4, !tbaa !4
  %52 = sext i32 %51 to i64
  %53 = getelementptr inbounds [3 x ptr], ptr %4, i64 0, i64 %52
  %54 = load ptr, ptr %53, align 8, !tbaa !17
  %55 = call i64 @strlen(ptr noundef %54) #6
  %56 = trunc i64 %55 to i32
  %57 = call i32 @wc_HmacSetKey(ptr noundef %2, i32 noundef 5, ptr noundef %50, i32 noundef %56)
  store i32 %57, ptr %9, align 4, !tbaa !4
  %58 = load i32, ptr %9, align 4, !tbaa !4
  %59 = icmp ne i32 %58, 0
  br i1 %59, label %60, label %61

60:                                               ; preds = %46
  store i32 -4021, ptr %1, align 4
  store i32 1, ptr %12, align 4
  br label %100

61:                                               ; preds = %46
  %62 = load i32, ptr %11, align 4, !tbaa !4
  %63 = sext i32 %62 to i64
  %64 = getelementptr inbounds [3 x %struct.testVector], ptr %8, i64 0, i64 %63
  %65 = getelementptr inbounds nuw %struct.testVector, ptr %64, i32 0, i32 0
  %66 = load ptr, ptr %65, align 16, !tbaa !8
  %67 = load i32, ptr %11, align 4, !tbaa !4
  %68 = sext i32 %67 to i64
  %69 = getelementptr inbounds [3 x %struct.testVector], ptr %8, i64 0, i64 %68
  %70 = getelementptr inbounds nuw %struct.testVector, ptr %69, i32 0, i32 2
  %71 = load i64, ptr %70, align 16, !tbaa !14
  %72 = trunc i64 %71 to i32
  %73 = call i32 @wc_HmacUpdate(ptr noundef %2, ptr noundef %66, i32 noundef %72)
  store i32 %73, ptr %9, align 4, !tbaa !4
  %74 = load i32, ptr %9, align 4, !tbaa !4
  %75 = icmp ne i32 %74, 0
  br i1 %75, label %76, label %77

76:                                               ; preds = %61
  store i32 -4022, ptr %1, align 4
  store i32 1, ptr %12, align 4
  br label %100

77:                                               ; preds = %61
  %78 = getelementptr inbounds [28 x i8], ptr %3, i64 0, i64 0
  %79 = call i32 @wc_HmacFinal(ptr noundef %2, ptr noundef %78)
  store i32 %79, ptr %9, align 4, !tbaa !4
  %80 = load i32, ptr %9, align 4, !tbaa !4
  %81 = icmp ne i32 %80, 0
  br i1 %81, label %82, label %83

82:                                               ; preds = %77
  store i32 -4023, ptr %1, align 4
  store i32 1, ptr %12, align 4
  br label %100

83:                                               ; preds = %77
  %84 = getelementptr inbounds [28 x i8], ptr %3, i64 0, i64 0
  %85 = load i32, ptr %11, align 4, !tbaa !4
  %86 = sext i32 %85 to i64
  %87 = getelementptr inbounds [3 x %struct.testVector], ptr %8, i64 0, i64 %86
  %88 = getelementptr inbounds nuw %struct.testVector, ptr %87, i32 0, i32 1
  %89 = load ptr, ptr %88, align 8, !tbaa !13
  %90 = call i32 @memcmp(ptr noundef %84, ptr noundef %89, i64 noundef 28) #6
  %91 = icmp ne i32 %90, 0
  br i1 %91, label %92, label %95

92:                                               ; preds = %83
  %93 = load i32, ptr %11, align 4, !tbaa !4
  %94 = sub nsw i32 -20, %93
  store i32 %94, ptr %1, align 4
  store i32 1, ptr %12, align 4
  br label %100

95:                                               ; preds = %83
  br label %96

96:                                               ; preds = %95
  %97 = load i32, ptr %11, align 4, !tbaa !4
  %98 = add nsw i32 %97, 1
  store i32 %98, ptr %11, align 4, !tbaa !4
  br label %42, !llvm.loop !28

99:                                               ; preds = %42
  call void @wc_HmacFree(ptr noundef %2)
  store i32 0, ptr %1, align 4
  store i32 1, ptr %12, align 4
  br label %100

100:                                              ; preds = %99, %92, %82, %76, %60, %40
  call void @llvm.lifetime.end.p0(i64 4, ptr %11) #5
  call void @llvm.lifetime.end.p0(i64 4, ptr %10) #5
  call void @llvm.lifetime.end.p0(i64 4, ptr %9) #5
  call void @llvm.lifetime.end.p0(i64 96, ptr %8) #5
  call void @llvm.lifetime.end.p0(i64 32, ptr %7) #5
  call void @llvm.lifetime.end.p0(i64 32, ptr %6) #5
  call void @llvm.lifetime.end.p0(i64 32, ptr %5) #5
  call void @llvm.lifetime.end.p0(i64 24, ptr %4) #5
  call void @llvm.lifetime.end.p0(i64 28, ptr %3) #5
  call void @llvm.lifetime.end.p0(i64 784, ptr %2) #5
  %101 = load i32, ptr %1, align 4
  ret i32 %101
}